; ModuleID = '56/2794.c'
source_filename = "56/2794.c"
target datalayout = "e-m:e-p270:32:32-p271:32:32-p272:64:64-i64:64-f80:128-n8:16:32:64-S128"
target triple = "x86_64-pc-linux-gnu"

@l = common dso_local global i32 0, align 4
@.str = private unnamed_addr constant [3 x i8] c"%c\00", align 1

; Function Attrs: noinline nounwind uwtable
define dso_local i32 @main() #0 {
  %1 = alloca i32, align 4
  %2 = alloca [5 x i8], align 1
  %3 = alloca i32, align 4
  store i32 0, i32* %1, align 4
  %4 = getelementptr inbounds [5 x i8], [5 x i8]* %2, i64 0, i64 0
  %5 = call i32 (i8*, ...) bitcast (i32 (...)* @gets to i32 (i8*, ...)*)(i8* %4)
  %6 = getelementptr inbounds [5 x i8], [5 x i8]* %2, i64 0, i64 0
  %7 = call i64 @strlen(i8* %6) #3
  %8 = trunc i64 %7 to i32
  store i32 %8, i32* @l, align 4
  %9 = load i32, i32* @l, align 4
  store i32 %9, i32* %3, align 4
  %10 = load i32, i32* %3, align 4
  %11 = getelementptr inbounds [5 x i8], [5 x i8]* %2, i64 0, i64 0
  call void @pailie(i32 %10, i8* %11)
  ret i32 0
}

declare dso_local i32 @gets(...) #1

; Function Attrs: nounwind readonly
declare dso_local i64 @strlen(i8*) #2

; Function Attrs: noinline nounwind uwtable
define dso_local void @pailie(i32 %0, i8* %1) #0 {
  %3 = alloca i32, align 4
  %4 = alloca i8*, align 8
  store i32 %0, i32* %3, align 4
  store i8* %1, i8** %4, align 8
  %5 = load i32, i32* %3, align 4
  %6 = icmp eq i32 %5, 1
  br i1 %6, label %7, label %17

7:                                                ; preds = %2
  %8 = load i8*, i8** %4, align 8
  %9 = load i32, i32* @l, align 4
  %10 = load i32, i32* %3, align 4
  %11 = sub nsw i32 %9, %10
  %12 = sext i32 %11 to i64
  %13 = getelementptr inbounds i8, i8* %8, i64 %12
  %14 = load i8, i8* %13, align 1
  %15 = sext i8 %14 to i32
  %16 = call i32 (i8*, ...) @printf(i8* getelementptr inbounds ([3 x i8], [3 x i8]* @.str, i64 0, i64 0), i32 %15)
  br label %30

17:                                               ; preds = %2
  %18 = load i32, i32* %3, align 4
  %19 = sub nsw i32 %18, 1
  %20 = load i8*, i8** %4, align 8
  call void @pailie(i32 %19, i8* %20)
  %21 = load i8*, i8** %4, align 8
  %22 = load i32, i32* @l, align 4
  %23 = load i32, i32* %3, align 4
  %24 = sub nsw i32 %22, %23
  %25 = sext i32 %24 to i64
  %26 = getelementptr inbounds i8, i8* %21, i64 %25
  %27 = load i8, i8* %26, align 1
  %28 = sext i8 %27 to i32
  %29 = call i32 (i8*, ...) @printf(i8* getelementptr inbounds ([3 x i8], [3 x i8]* @.str, i64 0, i64 0), i32 %28)
  br label %30

30:                                               ; preds = %17, %7
  ret void
}

declare dso_local i32 @printf(i8*, ...) #1


!llvm.module.flags = !{!0}
!llvm.ident = !{!1}

!0 = !{i32 1, !"wchar_size", i32 4}
!1 = !{!"clang version 10.0.0-4ubuntu1 "}
