; ModuleID = 'source-C-CXX/55/2794.c'
source_filename = "source-C-CXX/55/2794.c"
target datalayout = "e-m:e-p270:32:32-p271:32:32-p272:64:64-i64:64-f80:128-n8:16:32:64-S128"
target triple = "x86_64-pc-linux-gnu"

@l = dso_local local_unnamed_addr global i32 0, align 4

; Function Attrs: nounwind sspstrong uwtable
define dso_local i32 @main() local_unnamed_addr #0 {
  %1 = alloca [5 x i8], align 1
  %2 = getelementptr inbounds [5 x i8], [5 x i8]* %1, i64 0, i64 0
  call void @llvm.lifetime.start.p0i8(i64 5, i8* nonnull %2) #6
  %3 = call i32 (i8*, ...) bitcast (i32 (...)* @gets to i32 (i8*, ...)*)(i8* nonnull %2) #6
  %4 = call i64 @strlen(i8* noundef nonnull %2) #7
  %5 = trunc i64 %4 to i32
  store i32 %5, i32* @l, align 4, !tbaa !5
  call void @pailie(i32 %5, i8* nonnull %2)
  call void @llvm.lifetime.end.p0i8(i64 5, i8* nonnull %2) #6
  ret i32 0
}

; Function Attrs: argmemonly mustprogress nofree nosync nounwind willreturn
declare void @llvm.lifetime.start.p0i8(i64 immarg, i8* nocapture) #1

declare i32 @gets(...) local_unnamed_addr #2

; Function Attrs: argmemonly mustprogress nofree nounwind readonly willreturn
declare i64 @strlen(i8* nocapture) local_unnamed_addr #3

; Function Attrs: nofree nounwind sspstrong uwtable
define dso_local void @pailie(i32 %0, i8* nocapture readonly %1) local_unnamed_addr #4 {
  %3 = icmp eq i32 %0, 1
  br i1 %3, label %4, label %14

4:                                                ; preds = %2
  %5 = load i32, i32* @l, align 4, !tbaa !5
  %6 = add nsw i32 %5, -1
  br label %7

7:                                                ; preds = %4, %14
  %8 = phi i32 [ %6, %4 ], [ %17, %14 ]
  %9 = sext i32 %8 to i64
  %10 = getelementptr inbounds i8, i8* %1, i64 %9
  %11 = load i8, i8* %10, align 1, !tbaa !9
  %12 = sext i8 %11 to i32
  %13 = tail call i32 @putchar(i32 %12)
  ret void

14:                                               ; preds = %2
  %15 = add nsw i32 %0, -1
  tail call void @pailie(i32 %15, i8* %1)
  %16 = load i32, i32* @l, align 4, !tbaa !5
  %17 = sub nsw i32 %16, %0
  br label %7
}

; Function Attrs: argmemonly mustprogress nofree nosync nounwind willreturn
declare void @llvm.lifetime.end.p0i8(i64 immarg, i8* nocapture) #1

; Function Attrs: nofree nounwind
declare noundef i32 @putchar(i32 noundef) local_unnamed_addr #5


!llvm.module.flags = !{!0, !1, !2, !3}
!llvm.ident = !{!4}

!0 = !{i32 1, !"wchar_size", i32 4}
!1 = !{i32 7, !"PIC Level", i32 2}
!2 = !{i32 7, !"PIE Level", i32 2}
!3 = !{i32 7, !"uwtable", i32 1}
!4 = !{!"clang version 13.0.0"}
!5 = !{!6, !6, i64 0}
!6 = !{!"int", !7, i64 0}
!7 = !{!"omnipotent char", !8, i64 0}
!8 = !{!"Simple C/C++ TBAA"}
!9 = !{!7, !7, i64 0}
